; Function Attrs: nounwind uwtable
define internal ptr @unpack(ptr noundef readonly captures(none) %0, ptr noundef readonly captures(none) %1, i64 noundef %2) #0 {
  %4 = alloca ptr, align 8
  %5 = alloca %struct.Py_buffer, align 8
  call void @llvm.lifetime.start.p0(i64 8, ptr nonnull %4) #7
  store ptr null, ptr %4, align 8, !tbaa !19
  call void @llvm.lifetime.start.p0(i64 80, ptr nonnull %5) #7
  call void @llvm.memset.p0.i64(ptr noundef nonnull align 8 dereferenceable(80) %5, i8 0, i64 80, i1 false)
  %or.cond = icmp eq i64 %2, 2
  br i1 %or.cond, label %8, label %6

6:                                                ; preds = %3
  %7 = tail call i32 @_PyArg_CheckPositional(ptr noundef nonnull @.str.6, i64 noundef %2, i64 noundef 2, i64 noundef 2) #7
  %.not = icmp eq i32 %7, 0
  br i1 %.not, label %Py_XDECREF.exit, label %8

8:                                                ; preds = %3, %6
  %9 = load ptr, ptr %1, align 8, !tbaa !17
  %10 = getelementptr i8, ptr %0, i64 32
  %.val = load ptr, ptr %10, align 8, !tbaa !3
  %11 = call fastcc i32 @cache_struct_converter(ptr %.val, ptr noundef %9, ptr noundef %4)
  %.not8 = icmp eq i32 %11, 0
  br i1 %.not8, label %.unpack_impl.exit_crit_edge, label %12

.unpack_impl.exit_crit_edge:                      ; preds = %8
  %.pre = load ptr, ptr %4, align 8, !tbaa !19
  br label %unpack_impl.exit

12:                                               ; preds = %8
  %13 = getelementptr i8, ptr %1, i64 8
  %14 = load ptr, ptr %13, align 8, !tbaa !17
  %15 = call i32 @PyObject_GetBuffer(ptr noundef %14, ptr noundef nonnull %5, i32 noundef 0) #7
  %.not9 = icmp eq i32 %15, 0
  %.pre12 = load ptr, ptr %4, align 8, !tbaa !19
  br i1 %.not9, label %16, label %unpack_impl.exit

16:                                               ; preds = %12
  %17 = getelementptr i8, ptr %.pre12, i64 8
  %.val10.i.i = load ptr, ptr %17, align 8, !tbaa !24
  %18 = call ptr @PyType_GetModuleByDef(ptr noundef %.val10.i.i, ptr noundef nonnull @_structmodule) #7
  %19 = getelementptr i8, ptr %18, i64 32
  %.val.i.i = load ptr, ptr %19, align 8, !tbaa !3
  %20 = getelementptr inbounds nuw i8, ptr %5, i64 16
  %21 = load i64, ptr %20, align 8, !tbaa !25
  %22 = getelementptr inbounds nuw i8, ptr %.pre12, i64 16
  %23 = load i64, ptr %22, align 8, !tbaa !20
  %.not.i.i = icmp eq i64 %21, %23
  br i1 %.not.i.i, label %28, label %24

24:                                               ; preds = %16
  %25 = getelementptr inbounds nuw i8, ptr %.val.i.i, i64 24
  %26 = load ptr, ptr %25, align 8, !tbaa !16
  %27 = call ptr (ptr, ptr, ...) @PyErr_Format(ptr noundef %26, ptr noundef nonnull @.str.23, i64 noundef %23) #7
  br label %unpack_impl.exit.thread

28:                                               ; preds = %16
  %29 = load ptr, ptr %5, align 8, !tbaa !30
  %30 = call fastcc ptr @s_unpack_internal(ptr noundef nonnull readonly %.pre12, ptr noundef %29, ptr noundef %.val.i.i)
  br label %unpack_impl.exit.thread

unpack_impl.exit:                                 ; preds = %.unpack_impl.exit_crit_edge, %12
  %31 = phi ptr [ %.pre12, %12 ], [ %.pre, %.unpack_impl.exit_crit_edge ]
  %.not.i = icmp eq ptr %31, null
  br i1 %.not.i, label %Py_XDECREF.exit, label %unpack_impl.exit.thread

unpack_impl.exit.thread:                          ; preds = %28, %24, %unpack_impl.exit
  %.015 = phi ptr [ null, %unpack_impl.exit ], [ %30, %28 ], [ null, %24 ]
  %32 = phi ptr [ %31, %unpack_impl.exit ], [ %.pre12, %28 ], [ %.pre12, %24 ]
  %33 = load i32, ptr %32, align 8, !tbaa !18
  %.not.i.i11 = icmp sgt i32 %33, -1
  br i1 %.not.i.i11, label %34, label %Py_XDECREF.exit

34:                                               ; preds = %unpack_impl.exit.thread
  %35 = add nsw i32 %33, -1
  store i32 %35, ptr %32, align 8, !tbaa !18
  %36 = icmp eq i32 %35, 0
  br i1 %36, label %37, label %Py_XDECREF.exit

37:                                               ; preds = %34
  call void @_Py_Dealloc(ptr noundef nonnull %32) #7
  br label %Py_XDECREF.exit

Py_XDECREF.exit:                                  ; preds = %6, %unpack_impl.exit, %unpack_impl.exit.thread, %34, %37
  %.016 = phi ptr [ null, %unpack_impl.exit ], [ %.015, %unpack_impl.exit.thread ], [ %.015, %34 ], [ %.015, %37 ], [ null, %6 ]
  %38 = getelementptr inbounds nuw i8, ptr %5, i64 8
  %39 = load ptr, ptr %38, align 8, !tbaa !31
  %.not10 = icmp eq ptr %39, null
  br i1 %.not10, label %41, label %40

40:                                               ; preds = %Py_XDECREF.exit
  call void @PyBuffer_Release(ptr noundef nonnull %5) #7
  br label %41

41:                                               ; preds = %40, %Py_XDECREF.exit
  call void @llvm.lifetime.end.p0(i64 80, ptr nonnull %5) #7
  call void @llvm.lifetime.end.p0(i64 8, ptr nonnull %4) #7
  ret ptr %.016
}